target datalayout = "e-m:e-p270:32:32-p271:32:32-p272:64:64-i64:64-i128:128-f80:128-n8:16:32:64-S128"
target triple = "x86_64-pc-linux-gnu"

%"struct.std::pair.33" = type { %"class.llvm::MVT", %"class.std::function" }
%"class.llvm::MVT" = type { i16 }
%"class.std::function" = type { %"class.std::_Function_base", ptr }
%"class.std::_Function_base" = type { %"union.std::_Any_data", ptr }
%"union.std::_Any_data" = type { %"union.std::_Nocopy_types" }
%"union.std::_Nocopy_types" = type { { i64, i64 } }
%class.anon = type { ptr, ptr }
%class.anon.35 = type { i8 }
%"class.std::optional" = type { %"struct.std::_Optional_base" }
%"struct.std::_Optional_base" = type { %"struct.std::_Optional_payload" }
%"struct.std::_Optional_payload" = type { %"struct.std::_Optional_payload_base.base", i8 }
%"struct.std::_Optional_payload_base.base" = type <{ %"union.std::_Optional_payload_base<llvm::MVT>::_Storage", i8 }>
%"union.std::_Optional_payload_base<llvm::MVT>::_Storage" = type { %"class.llvm::MVT" }
%"class.llvm::function_ref" = type { ptr, i64 }
%class.anon.36 = type { i8 }
%"struct.std::_Optional_payload_base" = type <{ %"union.std::_Optional_payload_base<llvm::MVT>::_Storage", i8, i8 }>

@_ZZN4llvm15TypeSetByHwMode9intersectERNS_19MachineValueTypeSetERKS1_E9WildParts = internal global [1 x %"struct.std::pair.33"] zeroinitializer, align 16
@_ZGVZN4llvm15TypeSetByHwMode9intersectERNS_19MachineValueTypeSetERKS1_E9WildParts = internal global i64 0, align 8
@__dso_handle = external hidden global i8

; Function Attrs: mustprogress nounwind uwtable
define linkonce_odr hidden void @_ZNSt22_Optional_payload_baseIN4llvm3MVTEE8_StorageIS1_Lb1EEC2Ev(ptr noundef nonnull align 2 dereferenceable(2) %0) unnamed_addr #0 comdat align 2 {
  %2 = alloca ptr, align 8
  store ptr %0, ptr %2, align 8
  ret void
}

; Function Attrs: mustprogress nounwind uwtable
define linkonce_odr hidden void @_ZNSt22_Optional_payload_baseIN4llvm3MVTEE8_StorageIS1_Lb1EEC2IJRKS1_EEESt10in_place_tDpOT_(ptr noundef nonnull align 2 dereferenceable(2) %0, ptr noundef nonnull align 2 dereferenceable(2) %1) unnamed_addr #0 comdat align 2 {
  %3 = alloca ptr, align 8
  %4 = alloca ptr, align 8
  store ptr %0, ptr %3, align 8
  store ptr %1, ptr %4, align 8
  %5 = load ptr, ptr %3, align 8
  %6 = load ptr, ptr %4, align 8
  call void @llvm.memcpy.p0.p0.i64(ptr align 2 %5, ptr align 2 %6, i64 2, i1 false)
  ret void
}

; Function Attrs: mustprogress nounwind uwtable
define linkonce_odr hidden noundef ptr @_ZNSt9_Any_data9_M_accessEv(ptr noundef nonnull align 8 dereferenceable(16) %0) #0 comdat align 2 {
  %2 = alloca ptr, align 8
  store ptr %0, ptr %2, align 8
  %3 = load ptr, ptr %2, align 8
  %4 = getelementptr inbounds [16 x i8], ptr %3, i64 0, i64 0
  ret ptr %4
}

; Function Attrs: mustprogress nounwind uwtable
define linkonce_odr hidden void @_ZNSt22_Optional_payload_baseIN4llvm3MVTEEC2Ev(ptr noundef nonnull align 2 dereferenceable(3) %0) unnamed_addr #0 comdat align 2 {
  %2 = alloca ptr, align 8
  store ptr %0, ptr %2, align 8
  %3 = load ptr, ptr %2, align 8
  %4 = getelementptr inbounds nuw %"struct.std::_Optional_payload_base", ptr %3, i32 0, i32 0
  call void @_ZNSt22_Optional_payload_baseIN4llvm3MVTEE8_StorageIS1_Lb1EEC2Ev(ptr noundef nonnull align 2 dereferenceable(2) %4) #4
  %5 = getelementptr inbounds nuw %"struct.std::_Optional_payload_base", ptr %3, i32 0, i32 1
  store i8 0, ptr %5, align 2
  ret void
}

; Function Attrs: mustprogress nounwind uwtable
define linkonce_odr hidden void @_ZNSt22_Optional_payload_baseIN4llvm3MVTEEC2IJRKS1_EEESt10in_place_tDpOT_(ptr noundef nonnull align 2 dereferenceable(3) %0, ptr noundef nonnull align 2 dereferenceable(2) %1) unnamed_addr #0 comdat align 2 {
  %3 = alloca ptr, align 8
  %4 = alloca ptr, align 8
  store ptr %0, ptr %3, align 8
  store ptr %1, ptr %4, align 8
  %5 = load ptr, ptr %3, align 8
  %6 = getelementptr inbounds nuw %"struct.std::_Optional_payload_base", ptr %5, i32 0, i32 0
  %7 = load ptr, ptr %4, align 8
  call void @_ZNSt22_Optional_payload_baseIN4llvm3MVTEE8_StorageIS1_Lb1EEC2IJRKS1_EEESt10in_place_tDpOT_(ptr noundef nonnull align 2 dereferenceable(2) %6, ptr noundef nonnull align 2 dereferenceable(2) %7)
  %8 = getelementptr inbounds nuw %"struct.std::_Optional_payload_base", ptr %5, i32 0, i32 1
  store i8 1, ptr %8, align 2
  ret void
}

; Function Attrs: mustprogress nounwind uwtable
define internal void @"_ZNSt14_Function_base13_Base_managerIZN4llvm15TypeSetByHwMode9intersectERNS1_19MachineValueTypeSetERKS3_E3$_0E9_M_createIS7_EEvRSt9_Any_dataOT_St17integral_constantIbLb1EE"(ptr noundef nonnull align 8 dereferenceable(16) %0, ptr noundef nonnull align 1 dereferenceable(1) %1) #0 align 2 {
  %3 = alloca ptr, align 8
  %4 = alloca ptr, align 8
  store ptr %0, ptr %3, align 8
  store ptr %1, ptr %4, align 8
  %5 = load ptr, ptr %3, align 8
  %6 = call noundef ptr @_ZNSt9_Any_data9_M_accessEv(ptr noundef nonnull align 8 dereferenceable(16) %5) #4
  ret void
}

; Function Attrs: mustprogress nounwind uwtable
define linkonce_odr hidden void @_ZNSt17_Optional_payloadIN4llvm3MVTELb1ELb1ELb1EEC2Ev(ptr noundef nonnull align 2 dereferenceable(3) %0) unnamed_addr #0 comdat align 2 {
  %2 = alloca ptr, align 8
  store ptr %0, ptr %2, align 8
  %3 = load ptr, ptr %2, align 8
  call void @_ZNSt22_Optional_payload_baseIN4llvm3MVTEEC2Ev(ptr noundef nonnull align 2 dereferenceable(3) %3) #4
  ret void
}

; Function Attrs: mustprogress nounwind uwtable
define linkonce_odr hidden void @_ZNSt17_Optional_payloadIN4llvm3MVTELb1ELb1ELb1EECI2St22_Optional_payload_baseIS1_EIJRKS1_EEESt10in_place_tDpOT_(ptr noundef nonnull align 2 dereferenceable(3) %0, ptr noundef nonnull align 2 dereferenceable(2) %1) unnamed_addr #0 comdat align 2 {
  %3 = alloca ptr, align 8
  %4 = alloca ptr, align 8
  store ptr %0, ptr %3, align 8
  store ptr %1, ptr %4, align 8
  %5 = load ptr, ptr %3, align 8
  %6 = load ptr, ptr %4, align 8
  call void @_ZNSt22_Optional_payload_baseIN4llvm3MVTEEC2IJRKS1_EEESt10in_place_tDpOT_(ptr noundef nonnull align 2 dereferenceable(3) %5, ptr noundef nonnull align 2 dereferenceable(2) %6)
  ret void
}

; Function Attrs: mustprogress nounwind uwtable
define internal void @"_ZNSt14_Function_base13_Base_managerIZN4llvm15TypeSetByHwMode9intersectERNS1_19MachineValueTypeSetERKS3_E3$_0E15_M_init_functorIS7_EEvRSt9_Any_dataOT_"(ptr noundef nonnull align 8 dereferenceable(16) %0, ptr noundef nonnull align 1 dereferenceable(1) %1) #0 align 2 {
  %3 = alloca ptr, align 8
  %4 = alloca ptr, align 8
  store ptr %0, ptr %3, align 8
  store ptr %1, ptr %4, align 8
  %5 = load ptr, ptr %3, align 8
  %6 = load ptr, ptr %4, align 8
  call void @"_ZNSt14_Function_base13_Base_managerIZN4llvm15TypeSetByHwMode9intersectERNS1_19MachineValueTypeSetERKS3_E3$_0E9_M_createIS7_EEvRSt9_Any_dataOT_St17integral_constantIbLb1EE"(ptr noundef nonnull align 8 dereferenceable(16) %5, ptr noundef nonnull align 1 dereferenceable(1) %6)
  ret void
}

; Function Attrs: mustprogress nounwind uwtable
define internal noundef zeroext i1 @"_ZNSt14_Function_base13_Base_managerIZN4llvm15TypeSetByHwMode9intersectERNS1_19MachineValueTypeSetERKS3_E3$_0E21_M_not_empty_functionIS7_EEbRKT_"(ptr noundef nonnull align 1 dereferenceable(1) %0) #0 align 2 {
  %2 = alloca ptr, align 8
  store ptr %0, ptr %2, align 8
  ret i1 true
}

; Function Attrs: mustprogress nounwind uwtable
define linkonce_odr hidden void @_ZNSt14_Function_baseC2Ev(ptr noundef nonnull align 8 dereferenceable(24) %0) unnamed_addr #0 comdat align 2 {
  %2 = alloca ptr, align 8
  store ptr %0, ptr %2, align 8
  %3 = load ptr, ptr %2, align 8
  %4 = getelementptr inbounds nuw %"class.std::_Function_base", ptr %3, i32 0, i32 0
  store ptr null, ptr %4, align 8
  %5 = getelementptr inbounds nuw %"class.std::_Function_base", ptr %3, i32 0, i32 1
  store ptr null, ptr %5, align 8
  ret void
}

; Function Attrs: mustprogress nounwind uwtable
define linkonce_odr hidden void @_ZNSt14_Optional_baseIN4llvm3MVTELb1ELb1EEC2Ev(ptr noundef nonnull align 2 dereferenceable(4) %0) unnamed_addr #0 comdat align 2 {
  %2 = alloca ptr, align 8
  store ptr %0, ptr %2, align 8
  %3 = load ptr, ptr %2, align 8
  %4 = getelementptr inbounds nuw %"struct.std::_Optional_base", ptr %3, i32 0, i32 0
  call void @_ZNSt17_Optional_payloadIN4llvm3MVTELb1ELb1ELb1EEC2Ev(ptr noundef nonnull align 2 dereferenceable(3) %4) #4
  ret void
}

; Function Attrs: mustprogress nounwind uwtable
define linkonce_odr hidden void @_ZNSt14_Optional_baseIN4llvm3MVTELb1ELb1EEC2IJRKS1_ETnNSt9enable_ifIX18is_constructible_vIS1_DpT_EEbE4typeELb0EEESt10in_place_tDpOS7_(ptr noundef nonnull align 2 dereferenceable(4) %0, ptr noundef nonnull align 2 dereferenceable(2) %1) unnamed_addr #0 comdat align 2 {
  %3 = alloca ptr, align 8
  %4 = alloca ptr, align 8
  store ptr %0, ptr %3, align 8
  store ptr %1, ptr %4, align 8
  %5 = load ptr, ptr %3, align 8
  %6 = getelementptr inbounds nuw %"struct.std::_Optional_base", ptr %5, i32 0, i32 0
  %7 = load ptr, ptr %4, align 8
  call void @_ZNSt17_Optional_payloadIN4llvm3MVTELb1ELb1ELb1EECI2St22_Optional_payload_baseIS1_EIJRKS1_EEESt10in_place_tDpOT_(ptr noundef nonnull align 2 dereferenceable(3) %6, ptr noundef nonnull align 2 dereferenceable(2) %7)
  ret void
}

; Function Attrs: mustprogress nounwind uwtable
define internal void @"_ZNSt8functionIFbN4llvm3MVTEEEC2IZNS0_15TypeSetByHwMode9intersectERNS0_19MachineValueTypeSetERKS6_E3$_0vEEOT_"(ptr noundef nonnull align 8 dereferenceable(32) %0, ptr noundef nonnull align 1 dereferenceable(1) %1) unnamed_addr #0 align 2 {
  %3 = alloca ptr, align 8
  %4 = alloca ptr, align 8
  store ptr %0, ptr %3, align 8
  store ptr %1, ptr %4, align 8
  %5 = load ptr, ptr %3, align 8
  %6 = getelementptr inbounds i8, ptr %5, i64 0
  call void @llvm.memset.p0.i64(ptr align 8 %6, i8 0, i64 24, i1 false)
  call void @_ZNSt14_Function_baseC2Ev(ptr noundef nonnull align 8 dereferenceable(24) %5) #4
  %7 = getelementptr inbounds nuw %"class.std::function", ptr %5, i32 0, i32 1
  store ptr null, ptr %7, align 8
  %8 = load ptr, ptr %4, align 8
  %9 = call noundef zeroext i1 @"_ZNSt14_Function_base13_Base_managerIZN4llvm15TypeSetByHwMode9intersectERNS1_19MachineValueTypeSetERKS3_E3$_0E21_M_not_empty_functionIS7_EEbRKT_"(ptr noundef nonnull align 1 dereferenceable(1) %8) #4
  br i1 %9, label %10, label %15

10:                                               ; preds = %2
  %11 = getelementptr inbounds nuw %"class.std::_Function_base", ptr %5, i32 0, i32 0
  %12 = load ptr, ptr %4, align 8
  call void @"_ZNSt14_Function_base13_Base_managerIZN4llvm15TypeSetByHwMode9intersectERNS1_19MachineValueTypeSetERKS3_E3$_0E15_M_init_functorIS7_EEvRSt9_Any_dataOT_"(ptr noundef nonnull align 8 dereferenceable(16) %11, ptr noundef nonnull align 1 dereferenceable(1) %12) #4
  %13 = getelementptr inbounds nuw %"class.std::function", ptr %5, i32 0, i32 1
  store ptr @"_ZNSt17_Function_handlerIFbN4llvm3MVTEEZNS0_15TypeSetByHwMode9intersectERNS0_19MachineValueTypeSetERKS4_E3$_0E9_M_invokeERKSt9_Any_dataOS1_", ptr %13, align 8
  %14 = getelementptr inbounds nuw %"class.std::_Function_base", ptr %5, i32 0, i32 1
  store ptr @"_ZNSt17_Function_handlerIFbN4llvm3MVTEEZNS0_15TypeSetByHwMode9intersectERNS0_19MachineValueTypeSetERKS4_E3$_0E10_M_managerERSt9_Any_dataRKSA_St18_Manager_operation", ptr %14, align 8
  br label %15

15:                                               ; preds = %10, %2
  ret void
}

; Function Attrs: mustprogress nounwind uwtable
define linkonce_odr hidden void @_ZN4llvm3MVTC2ENS0_15SimpleValueTypeE(ptr noundef nonnull align 2 dereferenceable(2) %0, i16 noundef zeroext %1) unnamed_addr #0 comdat align 2 {
  %3 = alloca ptr, align 8
  %4 = alloca i16, align 2
  store ptr %0, ptr %3, align 8
  store i16 %1, ptr %4, align 2
  %5 = load ptr, ptr %3, align 8
  %6 = getelementptr inbounds nuw %"class.llvm::MVT", ptr %5, i32 0, i32 0
  %7 = load i16, ptr %4, align 2
  store i16 %7, ptr %6, align 2
  ret void
}

; Function Attrs: mustprogress nounwind uwtable
define internal void @"_ZN4llvm12function_refIFbNS_3MVTEEEC2IZNS_15TypeSetByHwMode9intersectERNS_19MachineValueTypeSetERKS6_E3$_2EEOT_PNSt9enable_ifIXntsr3std7is_sameINS_12remove_cvrefISB_E4typeES3_EE5valueEvE4typeEPNSD_IXooL_ZNSt17integral_constantIbLb0EE5valueEEsr3std14is_convertibleIDTclclsr3stdE7declvalISB_EEclL_ZSt7declvalIS1_EDTcl9__declvalISB_ELi0EEEvEEEEbEE5valueEvE4typeE"(ptr noundef nonnull align 8 dereferenceable(16) %0, ptr noundef nonnull align 1 dereferenceable(1) %1, ptr noundef %2, ptr noundef %3) unnamed_addr #0 align 2 {
  %5 = alloca ptr, align 8
  %6 = alloca ptr, align 8
  %7 = alloca ptr, align 8
  %8 = alloca ptr, align 8
  store ptr %0, ptr %5, align 8
  store ptr %1, ptr %6, align 8
  store ptr %2, ptr %7, align 8
  store ptr %3, ptr %8, align 8
  %9 = load ptr, ptr %5, align 8
  %10 = getelementptr inbounds nuw %"class.llvm::function_ref", ptr %9, i32 0, i32 0
  store ptr @"_ZN4llvm12function_refIFbNS_3MVTEEE11callback_fnIZNS_15TypeSetByHwMode9intersectERNS_19MachineValueTypeSetERKS6_E3$_2EEblS1_", ptr %10, align 8
  %11 = getelementptr inbounds nuw %"class.llvm::function_ref", ptr %9, i32 0, i32 1
  %12 = load ptr, ptr %6, align 8
  %13 = ptrtoint ptr %12 to i64
  store i64 %13, ptr %11, align 8
  ret void
}

; Function Attrs: mustprogress nounwind uwtable
define linkonce_odr hidden void @_ZNSt8optionalIN4llvm3MVTEEC2ESt9nullopt_t(ptr noundef nonnull align 2 dereferenceable(4) %0) unnamed_addr #0 comdat align 2 {
  %2 = alloca ptr, align 8
  store ptr %0, ptr %2, align 8
  %3 = load ptr, ptr %2, align 8
  call void @_ZNSt14_Optional_baseIN4llvm3MVTELb1ELb1EEC2Ev(ptr noundef nonnull align 2 dereferenceable(4) %3) #4
  ret void
}

; Function Attrs: mustprogress nounwind uwtable
define linkonce_odr hidden void @_ZN4llvm12function_refIFbNS_3MVTEEEC2IRKSt8functionIS2_EEEOT_PNSt9enable_ifIXntsr3std7is_sameINS_12remove_cvrefIS9_E4typeES3_EE5valueEvE4typeEPNSB_IXooL_ZNSt17integral_constantIbLb0EE5valueEEsr3std14is_convertibleIDTclclsr3stdE7declvalIS9_EEclL_ZSt7declvalIS1_EDTcl9__declvalIS9_ELi0EEEvEEEEbEE5valueEvE4typeE(ptr noundef nonnull align 8 dereferenceable(16) %0, ptr noundef nonnull align 8 dereferenceable(32) %1, ptr noundef %2, ptr noundef %3) unnamed_addr #0 comdat align 2 {
  %5 = alloca ptr, align 8
  %6 = alloca ptr, align 8
  %7 = alloca ptr, align 8
  %8 = alloca ptr, align 8
  store ptr %0, ptr %5, align 8
  store ptr %1, ptr %6, align 8
  store ptr %2, ptr %7, align 8
  store ptr %3, ptr %8, align 8
  %9 = load ptr, ptr %5, align 8
  %10 = getelementptr inbounds nuw %"class.llvm::function_ref", ptr %9, i32 0, i32 0
  store ptr @_ZN4llvm12function_refIFbNS_3MVTEEE11callback_fnIKSt8functionIS2_EEEblS1_, ptr %10, align 8
  %11 = getelementptr inbounds nuw %"class.llvm::function_ref", ptr %9, i32 0, i32 1
  %12 = load ptr, ptr %6, align 8
  %13 = ptrtoint ptr %12 to i64
  store i64 %13, ptr %11, align 8
  ret void
}

; Function Attrs: mustprogress nounwind uwtable
define linkonce_odr hidden void @_ZNSt8optionalIN4llvm3MVTEEC2IRKS1_TnNSt9enable_ifIX7__and_vISt6__not_ISt7is_sameIS2_NSt9remove_cvINSt16remove_referenceIT_E4typeEE4typeEEES7_IS8_ISt10in_place_tSF_EESt16is_constructibleIS1_JSB_EESt14is_convertibleISB_S1_EEEbE4typeELb1EEEOSB_(ptr noundef nonnull align 2 dereferenceable(4) %0, ptr noundef nonnull align 2 dereferenceable(2) %1) unnamed_addr #0 comdat align 2 {
  %3 = alloca ptr, align 8
  %4 = alloca ptr, align 8
  store ptr %0, ptr %3, align 8
  store ptr %1, ptr %4, align 8
  %5 = load ptr, ptr %3, align 8
  %6 = load ptr, ptr %4, align 8
  call void @_ZNSt14_Optional_baseIN4llvm3MVTELb1ELb1EEC2IJRKS1_ETnNSt9enable_ifIX18is_constructible_vIS1_DpT_EEbE4typeELb0EEESt10in_place_tDpOS7_(ptr noundef nonnull align 2 dereferenceable(4) %5, ptr noundef nonnull align 2 dereferenceable(2) %6)
  ret void
}

; Function Attrs: mustprogress nounwind uwtable
define internal void @"_ZNSt4pairIN4llvm3MVTESt8functionIFbS1_EEEC2INS1_15SimpleValueTypeEZNS0_15TypeSetByHwMode9intersectERNS0_19MachineValueTypeSetERKS9_E3$_0TnNSt9enable_ifIXaaclsr5_PCCPE22_MoveConstructiblePairIT_T0_EEclsr5_PCCPE30_ImplicitlyMoveConvertiblePairISF_SG_EEEbE4typeELb1EEEOSF_OSG_"(ptr noundef nonnull align 8 dereferenceable(40) %0, ptr noundef nonnull align 2 dereferenceable(2) %1, ptr noundef nonnull align 1 dereferenceable(1) %2) unnamed_addr #0 align 2 {
  %4 = alloca ptr, align 8
  %5 = alloca ptr, align 8
  %6 = alloca ptr, align 8
  store ptr %0, ptr %4, align 8
  store ptr %1, ptr %5, align 8
  store ptr %2, ptr %6, align 8
  %7 = load ptr, ptr %4, align 8
  %8 = getelementptr inbounds nuw %"struct.std::pair.33", ptr %7, i32 0, i32 0
  %9 = load ptr, ptr %5, align 8
  %10 = load i16, ptr %9, align 2
  call void @_ZN4llvm3MVTC2ENS0_15SimpleValueTypeE(ptr noundef nonnull align 2 dereferenceable(2) %8, i16 noundef zeroext %10)
  %11 = getelementptr inbounds nuw %"struct.std::pair.33", ptr %7, i32 0, i32 1
  %12 = load ptr, ptr %6, align 8
  call void @"_ZNSt8functionIFbN4llvm3MVTEEEC2IZNS0_15TypeSetByHwMode9intersectERNS0_19MachineValueTypeSetERKS6_E3$_0vEEOT_"(ptr noundef nonnull align 8 dereferenceable(32) %11, ptr noundef nonnull align 1 dereferenceable(1) %12) #4
  ret void
}

; Function Attrs: mustprogress nounwind uwtable
define dso_local noundef zeroext i1 @_ZN4llvm15TypeSetByHwMode9intersectERNS_19MachineValueTypeSetERKS1_(ptr noundef nonnull align 8 dereferenceable(56) %0, ptr noundef nonnull align 8 dereferenceable(64) %1, ptr noundef nonnull align 8 dereferenceable(64) %2) #0 align 2 {
  %4 = alloca ptr, align 8
  %5 = alloca ptr, align 8
  %6 = alloca ptr, align 8
  %7 = alloca %class.anon, align 8
  %8 = alloca i16, align 2
  %9 = alloca %class.anon.35, align 1
  %10 = alloca i8, align 1
  %11 = alloca ptr, align 8
  %12 = alloca ptr, align 8
  %13 = alloca ptr, align 8
  %14 = alloca ptr, align 8
  %15 = alloca %"class.std::optional", align 2
  %16 = alloca %"class.llvm::function_ref", align 8
  %17 = alloca %"class.std::optional", align 2
  %18 = alloca %"class.llvm::function_ref", align 8
  %19 = alloca %class.anon.36, align 1
  store ptr %0, ptr %4, align 8
  store ptr %1, ptr %5, align 8
  store ptr %2, ptr %6, align 8
  %20 = getelementptr inbounds nuw %class.anon, ptr %7, i32 0, i32 0
  %21 = load ptr, ptr %6, align 8
  store ptr %21, ptr %20, align 8
  %22 = getelementptr inbounds nuw %class.anon, ptr %7, i32 0, i32 1
  %23 = load ptr, ptr %5, align 8
  store ptr %23, ptr %22, align 8
  %24 = load atomic i8, ptr @_ZGVZN4llvm15TypeSetByHwMode9intersectERNS_19MachineValueTypeSetERKS1_E9WildParts acquire, align 8
  %25 = icmp eq i8 %24, 0
  br i1 %25, label %26, label %31, !prof !4

26:                                               ; preds = %3
  %27 = call i32 @__cxa_guard_acquire(ptr @_ZGVZN4llvm15TypeSetByHwMode9intersectERNS_19MachineValueTypeSetERKS1_E9WildParts) #4
  %28 = icmp ne i32 %27, 0
  br i1 %28, label %29, label %31

29:                                               ; preds = %26
  store i16 510, ptr %8, align 2
  call void @"_ZNSt4pairIN4llvm3MVTESt8functionIFbS1_EEEC2INS1_15SimpleValueTypeEZNS0_15TypeSetByHwMode9intersectERNS0_19MachineValueTypeSetERKS9_E3$_0TnNSt9enable_ifIXaaclsr5_PCCPE22_MoveConstructiblePairIT_T0_EEclsr5_PCCPE30_ImplicitlyMoveConvertiblePairISF_SG_EEEbE4typeELb1EEEOSF_OSG_"(ptr noundef nonnull align 8 dereferenceable(40) @_ZZN4llvm15TypeSetByHwMode9intersectERNS_19MachineValueTypeSetERKS1_E9WildParts, ptr noundef nonnull align 2 dereferenceable(2) %8, ptr noundef nonnull align 1 dereferenceable(1) %9)
  %30 = call i32 @__cxa_atexit(ptr @__cxx_global_array_dtor, ptr null, ptr @__dso_handle) #4
  call void @__cxa_guard_release(ptr @_ZGVZN4llvm15TypeSetByHwMode9intersectERNS_19MachineValueTypeSetERKS1_E9WildParts) #4
  br label %31

31:                                               ; preds = %29, %26, %3
  store i8 0, ptr %10, align 1
  store ptr @_ZZN4llvm15TypeSetByHwMode9intersectERNS_19MachineValueTypeSetERKS1_E9WildParts, ptr %11, align 8
  store ptr @_ZZN4llvm15TypeSetByHwMode9intersectERNS_19MachineValueTypeSetERKS1_E9WildParts, ptr %12, align 8
  store ptr getelementptr inbounds (%"struct.std::pair.33", ptr @_ZZN4llvm15TypeSetByHwMode9intersectERNS_19MachineValueTypeSetERKS1_E9WildParts, i64 1), ptr %13, align 8
  br label %32

32:                                               ; preds = %57, %31
  %33 = load ptr, ptr %12, align 8
  %34 = load ptr, ptr %13, align 8
  %35 = icmp ne ptr %33, %34
  br i1 %35, label %36, label %60

36:                                               ; preds = %32
  %37 = load ptr, ptr %12, align 8
  store ptr %37, ptr %14, align 8
  %38 = load ptr, ptr %14, align 8
  %39 = getelementptr inbounds nuw %"struct.std::pair.33", ptr %38, i32 0, i32 0
  call void @_ZNSt8optionalIN4llvm3MVTEEC2IRKS1_TnNSt9enable_ifIX7__and_vISt6__not_ISt7is_sameIS2_NSt9remove_cvINSt16remove_referenceIT_E4typeEE4typeEEES7_IS8_ISt10in_place_tSF_EESt16is_constructibleIS1_JSB_EESt14is_convertibleISB_S1_EEEbE4typeELb1EEEOSB_(ptr noundef nonnull align 2 dereferenceable(4) %15, ptr noundef nonnull align 2 dereferenceable(2) %39) #4
  %40 = load ptr, ptr %14, align 8
  %41 = getelementptr inbounds nuw %"struct.std::pair.33", ptr %40, i32 0, i32 1
  call void @_ZN4llvm12function_refIFbNS_3MVTEEEC2IRKSt8functionIS2_EEEOT_PNSt9enable_ifIXntsr3std7is_sameINS_12remove_cvrefIS9_E4typeES3_EE5valueEvE4typeEPNSB_IXooL_ZNSt17integral_constantIbLb0EE5valueEEsr3std14is_convertibleIDTclclsr3stdE7declvalIS9_EEclL_ZSt7declvalIS1_EDTcl9__declvalIS9_ELi0EEEvEEEEbEE5valueEvE4typeE(ptr noundef nonnull align 8 dereferenceable(16) %16, ptr noundef nonnull align 8 dereferenceable(32) %41, ptr noundef null, ptr noundef null)
  %42 = getelementptr inbounds nuw %"class.std::optional", ptr %15, i32 0, i32 0
  %43 = getelementptr inbounds nuw %"struct.std::_Optional_base", ptr %42, i32 0, i32 0
  %44 = load i32, ptr %43, align 2
  %45 = getelementptr inbounds nuw { ptr, i64 }, ptr %16, i32 0, i32 0
  %46 = load ptr, ptr %45, align 8
  %47 = getelementptr inbounds nuw { ptr, i64 }, ptr %16, i32 0, i32 1
  %48 = load i64, ptr %47, align 8
  %49 = call noundef zeroext i1 @"_ZZN4llvm15TypeSetByHwMode9intersectERNS_19MachineValueTypeSetERKS1_ENK3$_1clESt8optionalINS_3MVTEENS_12function_refIFbS7_EEE"(ptr noundef nonnull align 8 dereferenceable(16) %7, i32 %44, ptr %46, i64 %48)
  %50 = zext i1 %49 to i32
  %51 = load i8, ptr %10, align 1
  %52 = trunc i8 %51 to i1
  %53 = zext i1 %52 to i32
  %54 = or i32 %53, %50
  %55 = icmp ne i32 %54, 0
  %56 = zext i1 %55 to i8
  store i8 %56, ptr %10, align 1
  br label %57

57:                                               ; preds = %36
  %58 = load ptr, ptr %12, align 8
  %59 = getelementptr inbounds %"struct.std::pair.33", ptr %58, i32 1
  store ptr %59, ptr %12, align 8
  br label %32

60:                                               ; preds = %32
  call void @_ZNSt8optionalIN4llvm3MVTEEC2ESt9nullopt_t(ptr noundef nonnull align 2 dereferenceable(4) %17) #4
  call void @"_ZN4llvm12function_refIFbNS_3MVTEEEC2IZNS_15TypeSetByHwMode9intersectERNS_19MachineValueTypeSetERKS6_E3$_2EEOT_PNSt9enable_ifIXntsr3std7is_sameINS_12remove_cvrefISB_E4typeES3_EE5valueEvE4typeEPNSD_IXooL_ZNSt17integral_constantIbLb0EE5valueEEsr3std14is_convertibleIDTclclsr3stdE7declvalISB_EEclL_ZSt7declvalIS1_EDTcl9__declvalISB_ELi0EEEvEEEEbEE5valueEvE4typeE"(ptr noundef nonnull align 8 dereferenceable(16) %18, ptr noundef nonnull align 1 dereferenceable(1) %19, ptr noundef null, ptr noundef null)
  %61 = getelementptr inbounds nuw %"class.std::optional", ptr %17, i32 0, i32 0
  %62 = getelementptr inbounds nuw %"struct.std::_Optional_base", ptr %61, i32 0, i32 0
  %63 = load i32, ptr %62, align 2
  %64 = getelementptr inbounds nuw { ptr, i64 }, ptr %18, i32 0, i32 0
  %65 = load ptr, ptr %64, align 8
  %66 = getelementptr inbounds nuw { ptr, i64 }, ptr %18, i32 0, i32 1
  %67 = load i64, ptr %66, align 8
  %68 = call noundef zeroext i1 @"_ZZN4llvm15TypeSetByHwMode9intersectERNS_19MachineValueTypeSetERKS1_ENK3$_1clESt8optionalINS_3MVTEENS_12function_refIFbS7_EEE"(ptr noundef nonnull align 8 dereferenceable(16) %7, i32 %63, ptr %65, i64 %67)
  %69 = zext i1 %68 to i32
  %70 = load i8, ptr %10, align 1
  %71 = trunc i8 %70 to i1
  %72 = zext i1 %71 to i32
  %73 = or i32 %72, %69
  %74 = icmp ne i32 %73, 0
  %75 = zext i1 %74 to i8
  store i8 %75, ptr %10, align 1
  %76 = load i8, ptr %10, align 1
  %77 = trunc i8 %76 to i1
  ret i1 %77
}