; Function Attrs: mustprogress nounwind uwtable
define dso_local noundef zeroext i1 @_ZN4llvm15TypeSetByHwMode9intersectERNS_19MachineValueTypeSetERKS1_(ptr nocapture nonnull readnone align 8 %0, ptr noundef nonnull align 8 dereferenceable(64) %1, ptr noundef nonnull align 8 dereferenceable(64) %2) local_unnamed_addr #0 align 2 {
  %4 = alloca %class.anon, align 8
  %5 = alloca %class.anon.36, align 1
  store ptr %2, ptr %4, align 8
  %6 = getelementptr inbounds nuw i8, ptr %4, i64 8
  store ptr %1, ptr %6, align 8
  %7 = load atomic i8, ptr @_ZGVZN4llvm15TypeSetByHwMode9intersectERNS_19MachineValueTypeSetERKS1_E9WildParts acquire, align 8
  %8 = icmp eq i8 %7, 0
  br i1 %8, label %9, label %13, !prof !10

9:                                                ; preds = %3
  %10 = tail call i32 @__cxa_guard_acquire(ptr nonnull @_ZGVZN4llvm15TypeSetByHwMode9intersectERNS_19MachineValueTypeSetERKS1_E9WildParts) #29
  %.not = icmp eq i32 %10, 0
  br i1 %.not, label %13, label %11

11:                                               ; preds = %9
  store i16 510, ptr @_ZZN4llvm15TypeSetByHwMode9intersectERNS_19MachineValueTypeSetERKS1_E9WildParts, align 16
  tail call void @llvm.memset.p0.i64(ptr noundef nonnull align 8 dereferenceable(16) getelementptr inbounds nuw (i8, ptr @_ZZN4llvm15TypeSetByHwMode9intersectERNS_19MachineValueTypeSetERKS1_E9WildParts, i64 8), i8 0, i64 16, i1 false)
  store ptr @"_ZNSt17_Function_handlerIFbN4llvm3MVTEEZNS0_15TypeSetByHwMode9intersectERNS0_19MachineValueTypeSetERKS4_E3$_0E9_M_invokeERKSt9_Any_dataOS1_", ptr getelementptr inbounds nuw (i8, ptr @_ZZN4llvm15TypeSetByHwMode9intersectERNS_19MachineValueTypeSetERKS1_E9WildParts, i64 32), align 16
  store ptr @"_ZNSt17_Function_handlerIFbN4llvm3MVTEEZNS0_15TypeSetByHwMode9intersectERNS0_19MachineValueTypeSetERKS4_E3$_0E10_M_managerERSt9_Any_dataRKSA_St18_Manager_operation", ptr getelementptr inbounds nuw (i8, ptr @_ZZN4llvm15TypeSetByHwMode9intersectERNS_19MachineValueTypeSetERKS1_E9WildParts, i64 24), align 8
  %12 = tail call i32 @__cxa_atexit(ptr nonnull @__cxx_global_array_dtor, ptr null, ptr nonnull @__dso_handle) #29
  tail call void @__cxa_guard_release(ptr nonnull @_ZGVZN4llvm15TypeSetByHwMode9intersectERNS_19MachineValueTypeSetERKS1_E9WildParts) #29
  br label %13

13:                                               ; preds = %11, %9, %3
  %14 = load i16, ptr @_ZZN4llvm15TypeSetByHwMode9intersectERNS_19MachineValueTypeSetERKS1_E9WildParts, align 16
  %.sroa.016.0.insert.ext = zext i16 %14 to i32
  %.sroa.016.0.insert.insert = or disjoint i32 %.sroa.016.0.insert.ext, 65536
  %15 = call fastcc noundef zeroext i1 @"_ZZN4llvm15TypeSetByHwMode9intersectERNS_19MachineValueTypeSetERKS1_ENK3$_1clESt8optionalINS_3MVTEENS_12function_refIFbS7_EEE"(ptr noundef nonnull align 8 dereferenceable(16) %4, i32 %.sroa.016.0.insert.insert, ptr nonnull @_ZN4llvm12function_refIFbNS_3MVTEEE11callback_fnIKSt8functionIS2_EEEblS1_, i64 ptrtoint (ptr getelementptr inbounds nuw (i8, ptr @_ZZN4llvm15TypeSetByHwMode9intersectERNS_19MachineValueTypeSetERKS1_E9WildParts, i64 8) to i64))
  %16 = ptrtoint ptr %5 to i64
  %17 = call fastcc noundef zeroext i1 @"_ZZN4llvm15TypeSetByHwMode9intersectERNS_19MachineValueTypeSetERKS1_ENK3$_1clESt8optionalINS_3MVTEENS_12function_refIFbS7_EEE"(ptr noundef nonnull align 8 dereferenceable(16) %4, i32 0, ptr nonnull @"_ZN4llvm12function_refIFbNS_3MVTEEE11callback_fnIZNS_15TypeSetByHwMode9intersectERNS_19MachineValueTypeSetERKS6_E3$_2EEblS1_", i64 %16)
  %18 = or i1 %15, %17
  ret i1 %18
}